target datalayout = "e-m:e-p270:32:32-p271:32:32-p272:64:64-i64:64-i128:128-f80:128-n8:16:32:64-S128"
target triple = "x86_64-pc-linux-gnu"

%struct.RoseEngine = type { i8, i8, i8, i8, i8, i8, i8, i8, i8, i32, i32, i32, i32, i32, i32, i32, i32, i32, i32, i32, i32, i32, i32, i32, i32, i32, i32, i32, i32, i32, i32, i32, i32, i32, i32, i32, i32, i32, i32, i32, i32, i32, i32, i32, i32, i32, i32, i32, i32, i32, i32, i32, i32, i32, i32, i32, i32, i32, i32, i32, i32, i32, i32, i32, i32, i32, i64, i64, i32, i32, i32, i32, i32, i32, i32, %struct.RoseStateOffsets, %struct.RoseBoundaryReports, i32, i32, i32, i32, i32, i32, i32, i32, i32, i32, i32, i32, %struct.scatter_full_plan }
%struct.RoseStateOffsets = type { i32, i32, i32, i32, i32, i32, i32, i32, i32, i32, i32, i32, i32, i32, i32, i32, i32, i32, i32, i32, i32, i32, i32 }
%struct.RoseBoundaryReports = type { i32, i32, i32 }
%struct.scatter_full_plan = type { i32, i32, i32, i32, i32, i32, i32, i32 }
%struct.hs_database = type { i32, i32, i32, i64, i32, i32, i32, i32, [16 x i32], [0 x i8] }

@hs_stream_alloc = external global ptr, align 8
@hs_stream_free = external global ptr, align 8

; Function Attrs: alwaysinline nounwind uwtable
define internal ptr @hs_get_bytecode(ptr noundef %0) #3 {
  %2 = alloca ptr, align 8
  store ptr %0, ptr %2, align 8
  %3 = load ptr, ptr %2, align 8
  %4 = load ptr, ptr %2, align 8
  %5 = getelementptr inbounds nuw %struct.hs_database, ptr %4, i32 0, i32 7
  %6 = load i32, ptr %5, align 4
  %7 = zext i32 %6 to i64
  %8 = getelementptr inbounds nuw i8, ptr %3, i64 %7
  ret ptr %8
}

; Function Attrs: alwaysinline nounwind uwtable
define internal i32 @validDatabase(ptr noundef %0) #3 {
  %2 = alloca i32, align 4
  %3 = alloca ptr, align 8
  store ptr %0, ptr %3, align 8
  %4 = load ptr, ptr %3, align 8
  %5 = icmp ne ptr %4, null
  br i1 %5, label %6, label %11

6:                                                ; preds = %1
  %7 = load ptr, ptr %3, align 8
  %8 = getelementptr inbounds nuw %struct.hs_database, ptr %7, i32 0, i32 0
  %9 = load i32, ptr %8, align 8
  %10 = icmp ne i32 %9, -606348325
  br i1 %10, label %11, label %12

11:                                               ; preds = %6, %1
  store i32 -1, ptr %2, align 4
  br label %19

12:                                               ; preds = %6
  %13 = load ptr, ptr %3, align 8
  %14 = getelementptr inbounds nuw %struct.hs_database, ptr %13, i32 0, i32 1
  %15 = load i32, ptr %14, align 4
  %16 = icmp ne i32 %15, 84148736
  br i1 %16, label %17, label %18

17:                                               ; preds = %12
  store i32 -5, ptr %2, align 4
  br label %19

18:                                               ; preds = %12
  store i32 0, ptr %2, align 4
  br label %19

19:                                               ; preds = %18, %17, %11
  %20 = load i32, ptr %2, align 4
  ret i32 %20
}

; Function Attrs: nounwind uwtable
define dso_local i32 @hs_expand_stream(ptr noundef %0, ptr noundef %1, ptr noundef %2, i64 noundef %3) #0 {
  %5 = alloca i32, align 4
  %6 = alloca ptr, align 8
  %7 = alloca ptr, align 8
  %8 = alloca ptr, align 8
  %9 = alloca i64, align 8
  %10 = alloca i32, align 4
  %11 = alloca i32, align 4
  %12 = alloca ptr, align 8
  %13 = alloca i64, align 8
  %14 = alloca ptr, align 8
  store ptr %0, ptr %6, align 8
  store ptr %1, ptr %7, align 8
  store ptr %2, ptr %8, align 8
  store i64 %3, ptr %9, align 8
  %15 = load ptr, ptr %7, align 8
  %16 = icmp ne ptr %15, null
  br i1 %16, label %17, label %21

17:                                               ; preds = %4
  %18 = load ptr, ptr %8, align 8
  %19 = icmp ne ptr %18, null
  %20 = xor i1 %19, true
  br label %21

21:                                               ; preds = %17, %4
  %22 = phi i1 [ true, %4 ], [ %20, %17 ]
  %23 = xor i1 %22, true
  %24 = xor i1 %23, true
  %25 = zext i1 %24 to i32
  %26 = sext i32 %25 to i64
  %27 = call i64 @llvm.expect.i64(i64 %26, i64 0)
  %28 = icmp ne i64 %27, 0
  br i1 %28, label %29, label %30

29:                                               ; preds = %21
  store i32 -1, ptr %5, align 4
  br label %107

30:                                               ; preds = %21
  %31 = load ptr, ptr %7, align 8
  store ptr null, ptr %31, align 8
  call void @llvm.lifetime.start.p0(i64 4, ptr %10) #13
  %32 = load ptr, ptr %6, align 8
  %33 = call i32 @validDatabase(ptr noundef %32)
  store i32 %33, ptr %10, align 4
  %34 = load i32, ptr %10, align 4
  %35 = icmp ne i32 %34, 0
  %36 = xor i1 %35, true
  %37 = xor i1 %36, true
  %38 = zext i1 %37 to i32
  %39 = sext i32 %38 to i64
  %40 = call i64 @llvm.expect.i64(i64 %39, i64 0)
  %41 = icmp ne i64 %40, 0
  br i1 %41, label %42, label %44

42:                                               ; preds = %30
  %43 = load i32, ptr %10, align 4
  store i32 %43, ptr %5, align 4
  store i32 1, ptr %11, align 4
  br label %106

44:                                               ; preds = %30
  call void @llvm.lifetime.start.p0(i64 8, ptr %12) #13
  %45 = load ptr, ptr %6, align 8
  %46 = call ptr @hs_get_bytecode(ptr noundef %45)
  store ptr %46, ptr %12, align 8
  %47 = load ptr, ptr %12, align 8
  %48 = ptrtoint ptr %47 to i64
  %49 = and i64 %48, 15
  %50 = icmp eq i64 %49, 0
  %51 = xor i1 %50, true
  %52 = xor i1 %51, true
  %53 = xor i1 %52, true
  %54 = zext i1 %53 to i32
  %55 = sext i32 %54 to i64
  %56 = call i64 @llvm.expect.i64(i64 %55, i64 0)
  %57 = icmp ne i64 %56, 0
  br i1 %57, label %58, label %59

58:                                               ; preds = %44
  store i32 -1, ptr %5, align 4
  store i32 1, ptr %11, align 4
  br label %105

59:                                               ; preds = %44
  %60 = load ptr, ptr %12, align 8
  %61 = getelementptr inbounds nuw %struct.RoseEngine, ptr %60, i32 0, i32 9
  %62 = load i32, ptr %61, align 4
  %63 = icmp ne i32 %62, 2
  %64 = xor i1 %63, true
  %65 = xor i1 %64, true
  %66 = zext i1 %65 to i32
  %67 = sext i32 %66 to i64
  %68 = call i64 @llvm.expect.i64(i64 %67, i64 0)
  %69 = icmp ne i64 %68, 0
  br i1 %69, label %70, label %71

70:                                               ; preds = %59
  store i32 -7, ptr %5, align 4
  store i32 1, ptr %11, align 4
  br label %105

71:                                               ; preds = %59
  call void @llvm.lifetime.start.p0(i64 8, ptr %13) #13
  %72 = load ptr, ptr %12, align 8
  %73 = getelementptr inbounds nuw %struct.RoseEngine, ptr %72, i32 0, i32 75
  %74 = getelementptr inbounds nuw %struct.RoseStateOffsets, ptr %73, i32 0, i32 22
  %75 = load i32, ptr %74, align 4
  %76 = zext i32 %75 to i64
  %77 = add i64 %76, 16
  store i64 %77, ptr %13, align 8
  call void @llvm.lifetime.start.p0(i64 8, ptr %14) #13
  %78 = load ptr, ptr @hs_stream_alloc, align 8
  %79 = load i64, ptr %13, align 8
  %80 = call ptr %78(i64 noundef %79)
  store ptr %80, ptr %14, align 8
  %81 = load ptr, ptr %14, align 8
  %82 = icmp ne ptr %81, null
  %83 = xor i1 %82, true
  %84 = xor i1 %83, true
  %85 = xor i1 %84, true
  %86 = zext i1 %85 to i32
  %87 = sext i32 %86 to i64
  %88 = call i64 @llvm.expect.i64(i64 %87, i64 0)
  %89 = icmp ne i64 %88, 0
  br i1 %89, label %90, label %91

90:                                               ; preds = %71
  store i32 -2, ptr %5, align 4
  store i32 1, ptr %11, align 4
  br label %104

91:                                               ; preds = %71
  %92 = load ptr, ptr %14, align 8
  %93 = load ptr, ptr %12, align 8
  %94 = load ptr, ptr %8, align 8
  %95 = load i64, ptr %9, align 8
  %96 = call i32 @expand_stream(ptr noundef %92, ptr noundef %93, ptr noundef %94, i64 noundef %95)
  %97 = icmp ne i32 %96, 0
  br i1 %97, label %101, label %98

98:                                               ; preds = %91
  %99 = load ptr, ptr @hs_stream_free, align 8
  %100 = load ptr, ptr %14, align 8
  call void %99(ptr noundef %100)
  store i32 -1, ptr %5, align 4
  store i32 1, ptr %11, align 4
  br label %104

101:                                              ; preds = %91
  %102 = load ptr, ptr %14, align 8
  %103 = load ptr, ptr %7, align 8
  store ptr %102, ptr %103, align 8
  store i32 0, ptr %5, align 4
  store i32 1, ptr %11, align 4
  br label %104

104:                                              ; preds = %101, %98, %90
  call void @llvm.lifetime.end.p0(i64 8, ptr %14) #13
  call void @llvm.lifetime.end.p0(i64 8, ptr %13) #13
  br label %105

105:                                              ; preds = %104, %70, %58
  call void @llvm.lifetime.end.p0(i64 8, ptr %12) #13
  br label %106

106:                                              ; preds = %105, %42
  call void @llvm.lifetime.end.p0(i64 4, ptr %10) #13
  br label %107

107:                                              ; preds = %106, %29
  %108 = load i32, ptr %5, align 4
  ret i32 %108
}