; Function Attrs: nounwind uwtable
define dso_local range(i32 -7, 1) i32 @hs_expand_stream(ptr noundef %0, ptr noundef writeonly %1, ptr noundef %2, i64 noundef %3) local_unnamed_addr #0 {
  %.not = icmp eq ptr %1, null
  %.not20 = icmp eq ptr %2, null
  %5 = or i1 %.not, %.not20
  br i1 %5, label %validDatabase.exit.thread, label %6, !prof !17

6:                                                ; preds = %4
  store ptr null, ptr %1, align 8
  %.not.i = icmp eq ptr %0, null
  br i1 %.not.i, label %validDatabase.exit.thread, label %7

7:                                                ; preds = %6
  %8 = load i32, ptr %0, align 8
  %.not4.i = icmp eq i32 %8, -606348325
  br i1 %.not4.i, label %9, label %validDatabase.exit.thread

9:                                                ; preds = %7
  %10 = getelementptr inbounds nuw i8, ptr %0, i64 4
  %11 = load i32, ptr %10, align 4
  %.not5.i = icmp eq i32 %11, 84148736
  br i1 %.not5.i, label %validDatabase.exit, label %validDatabase.exit.thread

validDatabase.exit:                               ; preds = %9
  %12 = getelementptr inbounds nuw i8, ptr %0, i64 36
  %13 = load i32, ptr %12, align 4
  %14 = zext i32 %13 to i64
  %15 = getelementptr inbounds nuw i8, ptr %0, i64 %14
  %16 = ptrtoint ptr %15 to i64
  %17 = and i64 %16, 15
  %.not22 = icmp eq i64 %17, 0
  br i1 %.not22, label %18, label %validDatabase.exit.thread, !prof !6

18:                                               ; preds = %validDatabase.exit
  %19 = getelementptr inbounds nuw i8, ptr %15, i64 12
  %20 = load i32, ptr %19, align 4
  %.not23 = icmp eq i32 %20, 2
  br i1 %.not23, label %21, label %validDatabase.exit.thread, !prof !6

21:                                               ; preds = %18
  %22 = getelementptr inbounds nuw i8, ptr %15, i64 372
  %23 = load i32, ptr %22, align 4
  %24 = zext i32 %23 to i64
  %25 = add nuw nsw i64 %24, 16
  %26 = load ptr, ptr @hs_stream_alloc, align 8
  %27 = tail call ptr %26(i64 noundef %25) #13
  %.not24 = icmp eq ptr %27, null
  br i1 %.not24, label %validDatabase.exit.thread, label %28, !prof !17

28:                                               ; preds = %21
  %29 = tail call i32 @expand_stream(ptr noundef nonnull %27, ptr noundef nonnull %15, ptr noundef nonnull %2, i64 noundef %3) #13
  %.not25 = icmp eq i32 %29, 0
  br i1 %.not25, label %30, label %32

30:                                               ; preds = %28
  %31 = load ptr, ptr @hs_stream_free, align 8
  tail call void %31(ptr noundef nonnull %27) #13
  br label %validDatabase.exit.thread

32:                                               ; preds = %28
  store ptr %27, ptr %1, align 8
  br label %validDatabase.exit.thread

validDatabase.exit.thread:                        ; preds = %9, %6, %7, %30, %32, %21, %18, %validDatabase.exit, %4
  %.0 = phi i32 [ -1, %4 ], [ -1, %validDatabase.exit ], [ -7, %18 ], [ 0, %32 ], [ -1, %30 ], [ -2, %21 ], [ -5, %9 ], [ -1, %6 ], [ -1, %7 ]
  ret i32 %.0
}